target datalayout = "e-m:e-p270:32:32-p271:32:32-p272:64:64-i64:64-i128:128-f80:128-n8:16:32:64-S128"
target triple = "x86_64-pc-linux-gnu"

%struct.OPTARGS = type { i32, i32, i32, i32, ptr, ptr, ptr, ptr, ptr, i32, i32, ptr, [21 x i8], [256 x ptr], ptr, ptr, ptr, ptr }

; Function Attrs: mustprogress nounwind uwtable
define internal noundef i32 @_ZL11opt_is_flagP7OPTARGSi(ptr noundef %0, i32 noundef %1) #4 {
  %3 = alloca i32, align 4
  %4 = alloca ptr, align 8
  %5 = alloca i32, align 4
  store ptr %0, ptr %4, align 8, !tbaa !4
  store i32 %1, ptr %5, align 4, !tbaa !20
  %6 = load ptr, ptr %4, align 8, !tbaa !4
  %7 = getelementptr inbounds nuw %struct.OPTARGS, ptr %6, i32 0, i32 13
  %8 = load i32, ptr %5, align 4, !tbaa !20
  %9 = sext i32 %8 to i64
  %10 = getelementptr inbounds [256 x ptr], ptr %7, i64 0, i64 %9
  %11 = load ptr, ptr %10, align 8, !tbaa !18
  %12 = load ptr, ptr %4, align 8, !tbaa !4
  %13 = getelementptr inbounds nuw %struct.OPTARGS, ptr %12, i32 0, i32 12
  %14 = getelementptr inbounds [21 x i8], ptr %13, i64 0, i64 0
  %15 = icmp ult ptr %11, %14
  br i1 %15, label %16, label %17

16:                                               ; preds = %2
  store i32 0, ptr %3, align 4
  br label %31

17:                                               ; preds = %2
  %18 = load ptr, ptr %4, align 8, !tbaa !4
  %19 = getelementptr inbounds nuw %struct.OPTARGS, ptr %18, i32 0, i32 13
  %20 = load i32, ptr %5, align 4, !tbaa !20
  %21 = sext i32 %20 to i64
  %22 = getelementptr inbounds [256 x ptr], ptr %19, i64 0, i64 %21
  %23 = load ptr, ptr %22, align 8, !tbaa !18
  %24 = load ptr, ptr %4, align 8, !tbaa !4
  %25 = getelementptr inbounds nuw %struct.OPTARGS, ptr %24, i32 0, i32 12
  %26 = getelementptr inbounds [21 x i8], ptr %25, i64 0, i64 0
  %27 = getelementptr inbounds i8, ptr %26, i64 20
  %28 = icmp ugt ptr %23, %27
  br i1 %28, label %29, label %30

29:                                               ; preds = %17
  store i32 0, ptr %3, align 4
  br label %31

30:                                               ; preds = %17
  store i32 1, ptr %3, align 4
  br label %31

31:                                               ; preds = %30, %29, %16
  %32 = load i32, ptr %3, align 4
  ret i32 %32
}

; Function Attrs: mustprogress uwtable
define hidden noundef i32 @_Z9opt_givenP7OPTARGSPKc(ptr noundef %0, ptr noundef %1) #5 {
  %3 = alloca i32, align 4
  %4 = alloca ptr, align 8
  %5 = alloca ptr, align 8
  %6 = alloca i32, align 4
  %7 = alloca i32, align 4
  store ptr %0, ptr %4, align 8, !tbaa !4
  store ptr %1, ptr %5, align 8, !tbaa !18
  call void @llvm.lifetime.start.p0(i64 4, ptr %6) #3
  %8 = load ptr, ptr %4, align 8, !tbaa !4
  %9 = load ptr, ptr %5, align 8, !tbaa !18
  %10 = call noundef i32 @_ZL11opt_ordinalP7OPTARGSPKc(ptr noundef %8, ptr noundef %9)
  store i32 %10, ptr %6, align 4, !tbaa !20
  %11 = load i32, ptr %6, align 4, !tbaa !20
  %12 = icmp eq i32 0, %11
  br i1 %12, label %13, label %14

13:                                               ; preds = %2
  store i32 0, ptr %3, align 4
  store i32 1, ptr %7, align 4
  br label %47

14:                                               ; preds = %2
  %15 = load ptr, ptr %4, align 8, !tbaa !4
  %16 = load i32, ptr %6, align 4, !tbaa !20
  %17 = call noundef i32 @_ZL11opt_is_flagP7OPTARGSi(ptr noundef %15, i32 noundef %16)
  %18 = icmp ne i32 %17, 0
  br i1 %18, label %19, label %33

19:                                               ; preds = %14
  %20 = load ptr, ptr %4, align 8, !tbaa !4
  %21 = getelementptr inbounds nuw %struct.OPTARGS, ptr %20, i32 0, i32 13
  %22 = load i32, ptr %6, align 4, !tbaa !20
  %23 = sext i32 %22 to i64
  %24 = getelementptr inbounds [256 x ptr], ptr %21, i64 0, i64 %23
  %25 = load ptr, ptr %24, align 8, !tbaa !18
  %26 = load ptr, ptr %4, align 8, !tbaa !4
  %27 = getelementptr inbounds nuw %struct.OPTARGS, ptr %26, i32 0, i32 12
  %28 = getelementptr inbounds [21 x i8], ptr %27, i64 0, i64 0
  %29 = ptrtoint ptr %25 to i64
  %30 = ptrtoint ptr %28 to i64
  %31 = sub i64 %29, %30
  %32 = trunc i64 %31 to i32
  store i32 %32, ptr %3, align 4
  store i32 1, ptr %7, align 4
  br label %47

33:                                               ; preds = %14
  %34 = load ptr, ptr %4, align 8, !tbaa !4
  %35 = getelementptr inbounds nuw %struct.OPTARGS, ptr %34, i32 0, i32 4
  %36 = load ptr, ptr %35, align 8, !tbaa !27
  %37 = getelementptr inbounds ptr, ptr %36, i64 0
  %38 = load ptr, ptr %37, align 8, !tbaa !18
  %39 = load ptr, ptr %4, align 8, !tbaa !4
  %40 = getelementptr inbounds nuw %struct.OPTARGS, ptr %39, i32 0, i32 13
  %41 = load i32, ptr %6, align 4, !tbaa !20
  %42 = sext i32 %41 to i64
  %43 = getelementptr inbounds [256 x ptr], ptr %40, i64 0, i64 %42
  %44 = load ptr, ptr %43, align 8, !tbaa !18
  %45 = icmp ne ptr %38, %44
  %46 = zext i1 %45 to i32
  store i32 %46, ptr %3, align 4
  store i32 1, ptr %7, align 4
  br label %47

47:                                               ; preds = %33, %19, %13
  call void @llvm.lifetime.end.p0(i64 4, ptr %6) #3
  %48 = load i32, ptr %3, align 4
  ret i32 %48
}